target datalayout = "e-m:e-p270:32:32-p271:32:32-p272:64:64-i64:64-i128:128-f80:128-n8:16:32:64-S128"
target triple = "x86_64-pc-linux-gnu"

%struct.ident_t = type { i32, i32, i32, i32, ptr }
%"class.ncnn::Scale" = type { %"class.ncnn::Layer", i32, i32, %"class.ncnn::Mat", %"class.ncnn::Mat" }
%"class.ncnn::Layer" = type { ptr, i8, i8, i8, i8, i8, i8, i8, i8, i8, i8, i8, i8, i8, i8, i8, i8, i8, i8, i8, i8, i32, ptr, i32, %"class.std::__cxx11::basic_string", %"class.std::__cxx11::basic_string", %"class.std::vector", %"class.std::vector", %"class.std::vector.3", %"class.std::vector.3" }
%"class.std::__cxx11::basic_string" = type { %"struct.std::__cxx11::basic_string<char>::_Alloc_hider", i64, %union.anon }
%"struct.std::__cxx11::basic_string<char>::_Alloc_hider" = type { ptr }
%union.anon = type { i64, [8 x i8] }
%"class.std::vector" = type { %"struct.std::_Vector_base" }
%"struct.std::_Vector_base" = type { %"struct.std::_Vector_base<int, std::allocator<int>>::_Vector_impl" }
%"struct.std::_Vector_base<int, std::allocator<int>>::_Vector_impl" = type { %"struct.std::_Vector_base<int, std::allocator<int>>::_Vector_impl_data" }
%"struct.std::_Vector_base<int, std::allocator<int>>::_Vector_impl_data" = type { ptr, ptr, ptr }
%"class.std::vector.3" = type { %"struct.std::_Vector_base.4" }
%"struct.std::_Vector_base.4" = type { %"struct.std::_Vector_base<ncnn::Mat, std::allocator<ncnn::Mat>>::_Vector_impl" }
%"struct.std::_Vector_base<ncnn::Mat, std::allocator<ncnn::Mat>>::_Vector_impl" = type { %"struct.std::_Vector_base<ncnn::Mat, std::allocator<ncnn::Mat>>::_Vector_impl_data" }
%"struct.std::_Vector_base<ncnn::Mat, std::allocator<ncnn::Mat>>::_Vector_impl_data" = type { ptr, ptr, ptr }
%"class.ncnn::Mat" = type { ptr, ptr, i64, i32, ptr, i32, i32, i32, i32, i32, i64 }
%"class.ncnn::Option" = type { i8, i32, ptr, ptr, i32, i8, i8, i8, i8, i8, i8, i8, i8, i8, i8, i8, i8, i8, i8, i8, i8, i8, i8, i8, i8, i32, i8, i8, i8, i8, i8, i8, i8, i8, i8, i8, i8, i8 }

@2 = private unnamed_addr constant %struct.ident_t { i32 0, i32 2, i32 0, i32 22, ptr @0 }, align 8

; Function Attrs: alwaysinline mustprogress nounwind uwtable
define linkonce_odr hidden noundef ptr @_ZN4ncnn3MatcvPT_IfEEv(ptr noundef nonnull align 8 dereferenceable(72) %0) #5 comdat align 2 {
  %2 = alloca ptr, align 8
  store ptr %0, ptr %2, align 8, !tbaa !17
  %3 = load ptr, ptr %2, align 8
  %4 = getelementptr inbounds nuw %"class.ncnn::Mat", ptr %3, i32 0, i32 0
  %5 = load ptr, ptr %4, align 8, !tbaa !53
  ret ptr %5
}

; Function Attrs: alwaysinline mustprogress nounwind uwtable
define linkonce_odr hidden noundef ptr @_ZNK4ncnn3MatcvPKT_IfEEv(ptr noundef nonnull align 8 dereferenceable(72) %0) #5 comdat align 2 {
  %2 = alloca ptr, align 8
  store ptr %0, ptr %2, align 8, !tbaa !17
  %3 = load ptr, ptr %2, align 8
  %4 = getelementptr inbounds nuw %"class.ncnn::Mat", ptr %3, i32 0, i32 0
  %5 = load ptr, ptr %4, align 8, !tbaa !53
  ret ptr %5
}

; Function Attrs: mustprogress nounwind uwtable
define linkonce_odr hidden noundef nonnull align 8 dereferenceable(72) ptr @_ZNSt6vectorIN4ncnn3MatESaIS1_EEixEm(ptr noundef nonnull align 8 dereferenceable(24) %0, i64 noundef %1) #4 comdat align 2 {
  %3 = alloca ptr, align 8
  %4 = alloca i64, align 8
  store ptr %0, ptr %3, align 8, !tbaa !13
  store i64 %1, ptr %4, align 8, !tbaa !51
  %5 = load ptr, ptr %3, align 8
  %6 = getelementptr inbounds nuw %"struct.std::_Vector_base.4", ptr %5, i32 0, i32 0
  %7 = getelementptr inbounds nuw %"struct.std::_Vector_base<ncnn::Mat, std::allocator<ncnn::Mat>>::_Vector_impl_data", ptr %6, i32 0, i32 0
  %8 = load ptr, ptr %7, align 8, !tbaa !52
  %9 = load i64, ptr %4, align 8, !tbaa !51
  %10 = getelementptr inbounds nuw %"class.ncnn::Mat", ptr %8, i64 %9
  ret ptr %10
}

; Function Attrs: mustprogress uwtable
define hidden noundef i32 @_ZNK4ncnn13Scale_x86_fma15forward_inplaceERSt6vectorINS_3MatESaIS2_EERKNS_6OptionE(ptr noundef nonnull align 8 dereferenceable(360) %0, ptr noundef nonnull align 8 dereferenceable(24) %1, ptr noundef nonnull align 8 dereferenceable(64) %2) unnamed_addr #2 align 2 {
  %4 = alloca ptr, align 8
  %5 = alloca ptr, align 8
  %6 = alloca ptr, align 8
  %7 = alloca ptr, align 8
  %8 = alloca ptr, align 8
  %9 = alloca i32, align 4
  %10 = alloca i32, align 4
  %11 = alloca i32, align 4
  %12 = alloca i32, align 4
  %13 = alloca i32, align 4
  %14 = alloca i32, align 4
  %15 = alloca ptr, align 8
  %16 = alloca ptr, align 8
  %17 = alloca ptr, align 8
  %18 = alloca i32, align 4
  %19 = alloca i32, align 4
  %20 = alloca i32, align 4
  %21 = alloca i32, align 4
  %22 = alloca i32, align 4
  %23 = alloca i32, align 4
  %24 = alloca i32, align 4
  %25 = call i32 @__kmpc_global_thread_num(ptr @2)
  store ptr %0, ptr %4, align 8, !tbaa !11
  store ptr %1, ptr %5, align 8, !tbaa !13
  store ptr %2, ptr %6, align 8, !tbaa !15
  %26 = load ptr, ptr %4, align 8
  call void @llvm.lifetime.start.p0(i64 8, ptr %7) #7
  %27 = load ptr, ptr %5, align 8, !tbaa !13
  %28 = call noundef nonnull align 8 dereferenceable(72) ptr @_ZNSt6vectorIN4ncnn3MatESaIS1_EEixEm(ptr noundef nonnull align 8 dereferenceable(24) %27, i64 noundef 0) #7
  store ptr %28, ptr %7, align 8, !tbaa !17
  call void @llvm.lifetime.start.p0(i64 8, ptr %8) #7
  %29 = load ptr, ptr %5, align 8, !tbaa !13
  %30 = call noundef nonnull align 8 dereferenceable(72) ptr @_ZNSt6vectorIN4ncnn3MatESaIS1_EEixEm(ptr noundef nonnull align 8 dereferenceable(24) %29, i64 noundef 1) #7
  store ptr %30, ptr %8, align 8, !tbaa !17
  call void @llvm.lifetime.start.p0(i64 4, ptr %9) #7
  %31 = load ptr, ptr %7, align 8, !tbaa !17
  %32 = getelementptr inbounds nuw %"class.ncnn::Mat", ptr %31, i32 0, i32 6
  %33 = load i32, ptr %32, align 4, !tbaa !19
  store i32 %33, ptr %9, align 4, !tbaa !25
  call void @llvm.lifetime.start.p0(i64 4, ptr %10) #7
  %34 = load ptr, ptr %7, align 8, !tbaa !17
  %35 = getelementptr inbounds nuw %"class.ncnn::Mat", ptr %34, i32 0, i32 7
  %36 = load i32, ptr %35, align 8, !tbaa !26
  store i32 %36, ptr %10, align 4, !tbaa !25
  call void @llvm.lifetime.start.p0(i64 4, ptr %11) #7
  %37 = load ptr, ptr %7, align 8, !tbaa !17
  %38 = getelementptr inbounds nuw %"class.ncnn::Mat", ptr %37, i32 0, i32 8
  %39 = load i32, ptr %38, align 4, !tbaa !27
  store i32 %39, ptr %11, align 4, !tbaa !25
  call void @llvm.lifetime.start.p0(i64 4, ptr %12) #7
  %40 = load ptr, ptr %7, align 8, !tbaa !17
  %41 = getelementptr inbounds nuw %"class.ncnn::Mat", ptr %40, i32 0, i32 9
  %42 = load i32, ptr %41, align 8, !tbaa !28
  store i32 %42, ptr %12, align 4, !tbaa !25
  call void @llvm.lifetime.start.p0(i64 4, ptr %13) #7
  %43 = load ptr, ptr %7, align 8, !tbaa !17
  %44 = getelementptr inbounds nuw %"class.ncnn::Mat", ptr %43, i32 0, i32 5
  %45 = load i32, ptr %44, align 8, !tbaa !29
  store i32 %45, ptr %13, align 4, !tbaa !25
  call void @llvm.lifetime.start.p0(i64 4, ptr %14) #7
  %46 = load ptr, ptr %7, align 8, !tbaa !17
  %47 = getelementptr inbounds nuw %"class.ncnn::Mat", ptr %46, i32 0, i32 3
  %48 = load i32, ptr %47, align 8, !tbaa !30
  store i32 %48, ptr %14, align 4, !tbaa !25
  call void @llvm.lifetime.start.p0(i64 8, ptr %15) #7
  %49 = load ptr, ptr %8, align 8, !tbaa !17
  %50 = call noundef ptr @_ZNK4ncnn3MatcvPKT_IfEEv(ptr noundef nonnull align 8 dereferenceable(72) %49)
  store ptr %50, ptr %15, align 8, !tbaa !31
  call void @llvm.lifetime.start.p0(i64 8, ptr %16) #7
  %51 = getelementptr inbounds nuw %"class.ncnn::Scale", ptr %26, i32 0, i32 4
  %52 = call noundef ptr @_ZNK4ncnn3MatcvPKT_IfEEv(ptr noundef nonnull align 8 dereferenceable(72) %51)
  store ptr %52, ptr %16, align 8, !tbaa !31
  %53 = load i32, ptr %13, align 4, !tbaa !25
  %54 = icmp eq i32 %53, 1
  br i1 %54, label %55, label %117

55:                                               ; preds = %3
  call void @llvm.lifetime.start.p0(i64 8, ptr %17) #7
  %56 = load ptr, ptr %7, align 8, !tbaa !17
  %57 = call noundef ptr @_ZN4ncnn3MatcvPT_IfEEv(ptr noundef nonnull align 8 dereferenceable(72) %56)
  store ptr %57, ptr %17, align 8, !tbaa !31
  call void @llvm.lifetime.start.p0(i64 4, ptr %18) #7
  %58 = load i32, ptr %9, align 4, !tbaa !25
  %59 = load i32, ptr %14, align 4, !tbaa !25
  %60 = mul nsw i32 %58, %59
  store i32 %60, ptr %18, align 4, !tbaa !25
  %61 = getelementptr inbounds nuw %"class.ncnn::Scale", ptr %26, i32 0, i32 2
  %62 = load i32, ptr %61, align 4, !tbaa !33
  %63 = icmp ne i32 %62, 0
  br i1 %63, label %64, label %90

64:                                               ; preds = %55
  call void @llvm.lifetime.start.p0(i64 4, ptr %19) #7
  store i32 0, ptr %19, align 4, !tbaa !25
  call void @llvm.lifetime.start.p0(i64 4, ptr %20) #7
  store i32 0, ptr %20, align 4, !tbaa !25
  %65 = load i32, ptr %18, align 4, !tbaa !25
  %66 = load i32, ptr %20, align 4, !tbaa !25
  %67 = sub nsw i32 %65, %66
  %68 = sdiv i32 %67, 8
  store i32 %68, ptr %19, align 4, !tbaa !25
  %69 = load ptr, ptr %6, align 8, !tbaa !15
  %70 = getelementptr inbounds nuw %"class.ncnn::Option", ptr %69, i32 0, i32 1
  %71 = load i32, ptr %70, align 4, !tbaa !48
  call void @__kmpc_push_num_threads(ptr @2, i32 %25, i32 %71)
  call void (ptr, i32, ptr, ...) @__kmpc_fork_call(ptr @2, i32 5, ptr @_ZNK4ncnn13Scale_x86_fma15forward_inplaceERSt6vectorINS_3MatESaIS2_EERKNS_6OptionE.omp_outlined, ptr %19, ptr %20, ptr %17, ptr %15, ptr %16)
  %72 = load i32, ptr %19, align 4, !tbaa !25
  %73 = mul nsw i32 %72, 8
  %74 = load i32, ptr %20, align 4, !tbaa !25
  %75 = add nsw i32 %74, %73
  store i32 %75, ptr %20, align 4, !tbaa !25
  %76 = load i32, ptr %18, align 4, !tbaa !25
  %77 = load i32, ptr %20, align 4, !tbaa !25
  %78 = sub nsw i32 %76, %77
  %79 = sdiv i32 %78, 4
  store i32 %79, ptr %19, align 4, !tbaa !25
  %80 = load ptr, ptr %6, align 8, !tbaa !15
  %81 = getelementptr inbounds nuw %"class.ncnn::Option", ptr %80, i32 0, i32 1
  %82 = load i32, ptr %81, align 4, !tbaa !48
  call void @__kmpc_push_num_threads(ptr @2, i32 %25, i32 %82)
  call void (ptr, i32, ptr, ...) @__kmpc_fork_call(ptr @2, i32 5, ptr @_ZNK4ncnn13Scale_x86_fma15forward_inplaceERSt6vectorINS_3MatESaIS2_EERKNS_6OptionE.omp_outlined.1, ptr %19, ptr %20, ptr %17, ptr %15, ptr %16)
  %83 = load i32, ptr %19, align 4, !tbaa !25
  %84 = mul nsw i32 %83, 4
  %85 = load i32, ptr %20, align 4, !tbaa !25
  %86 = add nsw i32 %85, %84
  store i32 %86, ptr %20, align 4, !tbaa !25
  %87 = load ptr, ptr %6, align 8, !tbaa !15
  %88 = getelementptr inbounds nuw %"class.ncnn::Option", ptr %87, i32 0, i32 1
  %89 = load i32, ptr %88, align 4, !tbaa !48
  call void @__kmpc_push_num_threads(ptr @2, i32 %25, i32 %89)
  call void (ptr, i32, ptr, ...) @__kmpc_fork_call(ptr @2, i32 5, ptr @_ZNK4ncnn13Scale_x86_fma15forward_inplaceERSt6vectorINS_3MatESaIS2_EERKNS_6OptionE.omp_outlined.2, ptr %18, ptr %20, ptr %17, ptr %15, ptr %16)
  call void @llvm.lifetime.end.p0(i64 4, ptr %20) #7
  call void @llvm.lifetime.end.p0(i64 4, ptr %19) #7
  br label %116

90:                                               ; preds = %55
  call void @llvm.lifetime.start.p0(i64 4, ptr %21) #7
  store i32 0, ptr %21, align 4, !tbaa !25
  call void @llvm.lifetime.start.p0(i64 4, ptr %22) #7
  store i32 0, ptr %22, align 4, !tbaa !25
  %91 = load i32, ptr %18, align 4, !tbaa !25
  %92 = load i32, ptr %22, align 4, !tbaa !25
  %93 = sub nsw i32 %91, %92
  %94 = sdiv i32 %93, 8
  store i32 %94, ptr %21, align 4, !tbaa !25
  %95 = load ptr, ptr %6, align 8, !tbaa !15
  %96 = getelementptr inbounds nuw %"class.ncnn::Option", ptr %95, i32 0, i32 1
  %97 = load i32, ptr %96, align 4, !tbaa !48
  call void @__kmpc_push_num_threads(ptr @2, i32 %25, i32 %97)
  call void (ptr, i32, ptr, ...) @__kmpc_fork_call(ptr @2, i32 4, ptr @_ZNK4ncnn13Scale_x86_fma15forward_inplaceERSt6vectorINS_3MatESaIS2_EERKNS_6OptionE.omp_outlined.3, ptr %21, ptr %22, ptr %17, ptr %15)
  %98 = load i32, ptr %21, align 4, !tbaa !25
  %99 = mul nsw i32 %98, 8
  %100 = load i32, ptr %22, align 4, !tbaa !25
  %101 = add nsw i32 %100, %99
  store i32 %101, ptr %22, align 4, !tbaa !25
  %102 = load i32, ptr %18, align 4, !tbaa !25
  %103 = load i32, ptr %22, align 4, !tbaa !25
  %104 = sub nsw i32 %102, %103
  %105 = sdiv i32 %104, 4
  store i32 %105, ptr %21, align 4, !tbaa !25
  %106 = load ptr, ptr %6, align 8, !tbaa !15
  %107 = getelementptr inbounds nuw %"class.ncnn::Option", ptr %106, i32 0, i32 1
  %108 = load i32, ptr %107, align 4, !tbaa !48
  call void @__kmpc_push_num_threads(ptr @2, i32 %25, i32 %108)
  call void (ptr, i32, ptr, ...) @__kmpc_fork_call(ptr @2, i32 4, ptr @_ZNK4ncnn13Scale_x86_fma15forward_inplaceERSt6vectorINS_3MatESaIS2_EERKNS_6OptionE.omp_outlined.4, ptr %21, ptr %22, ptr %17, ptr %15)
  %109 = load i32, ptr %21, align 4, !tbaa !25
  %110 = mul nsw i32 %109, 4
  %111 = load i32, ptr %22, align 4, !tbaa !25
  %112 = add nsw i32 %111, %110
  store i32 %112, ptr %22, align 4, !tbaa !25
  %113 = load ptr, ptr %6, align 8, !tbaa !15
  %114 = getelementptr inbounds nuw %"class.ncnn::Option", ptr %113, i32 0, i32 1
  %115 = load i32, ptr %114, align 4, !tbaa !48
  call void @__kmpc_push_num_threads(ptr @2, i32 %25, i32 %115)
  call void (ptr, i32, ptr, ...) @__kmpc_fork_call(ptr @2, i32 4, ptr @_ZNK4ncnn13Scale_x86_fma15forward_inplaceERSt6vectorINS_3MatESaIS2_EERKNS_6OptionE.omp_outlined.5, ptr %18, ptr %22, ptr %17, ptr %15)
  call void @llvm.lifetime.end.p0(i64 4, ptr %22) #7
  call void @llvm.lifetime.end.p0(i64 4, ptr %21) #7
  br label %116

116:                                              ; preds = %90, %64
  call void @llvm.lifetime.end.p0(i64 4, ptr %18) #7
  call void @llvm.lifetime.end.p0(i64 8, ptr %17) #7
  br label %117

117:                                              ; preds = %116, %3
  %118 = load i32, ptr %13, align 4, !tbaa !25
  %119 = icmp eq i32 %118, 2
  br i1 %119, label %120, label %128

120:                                              ; preds = %117
  call void @llvm.lifetime.start.p0(i64 4, ptr %23) #7
  %121 = load i32, ptr %9, align 4, !tbaa !25
  %122 = load i32, ptr %14, align 4, !tbaa !25
  %123 = mul nsw i32 %121, %122
  store i32 %123, ptr %23, align 4, !tbaa !25
  %124 = load ptr, ptr %6, align 8, !tbaa !15
  %125 = getelementptr inbounds nuw %"class.ncnn::Option", ptr %124, i32 0, i32 1
  %126 = load i32, ptr %125, align 4, !tbaa !48
  call void @__kmpc_push_num_threads(ptr @2, i32 %25, i32 %126)
  %127 = load ptr, ptr %7, align 8, !tbaa !17
  call void (ptr, i32, ptr, ...) @__kmpc_fork_call(ptr @2, i32 7, ptr @_ZNK4ncnn13Scale_x86_fma15forward_inplaceERSt6vectorINS_3MatESaIS2_EERKNS_6OptionE.omp_outlined.6, ptr %10, ptr %127, ptr %15, ptr %14, ptr %26, ptr %16, ptr %23)
  call void @llvm.lifetime.end.p0(i64 4, ptr %23) #7
  br label %128

128:                                              ; preds = %120, %117
  %129 = load i32, ptr %13, align 4, !tbaa !25
  %130 = icmp eq i32 %129, 3
  br i1 %130, label %134, label %131

131:                                              ; preds = %128
  %132 = load i32, ptr %13, align 4, !tbaa !25
  %133 = icmp eq i32 %132, 4
  br i1 %133, label %134, label %146

134:                                              ; preds = %131, %128
  call void @llvm.lifetime.start.p0(i64 4, ptr %24) #7
  %135 = load i32, ptr %9, align 4, !tbaa !25
  %136 = load i32, ptr %10, align 4, !tbaa !25
  %137 = mul nsw i32 %135, %136
  %138 = load i32, ptr %11, align 4, !tbaa !25
  %139 = mul nsw i32 %137, %138
  %140 = load i32, ptr %14, align 4, !tbaa !25
  %141 = mul nsw i32 %139, %140
  store i32 %141, ptr %24, align 4, !tbaa !25
  %142 = load ptr, ptr %6, align 8, !tbaa !15
  %143 = getelementptr inbounds nuw %"class.ncnn::Option", ptr %142, i32 0, i32 1
  %144 = load i32, ptr %143, align 4, !tbaa !48
  call void @__kmpc_push_num_threads(ptr @2, i32 %25, i32 %144)
  %145 = load ptr, ptr %7, align 8, !tbaa !17
  call void (ptr, i32, ptr, ...) @__kmpc_fork_call(ptr @2, i32 7, ptr @_ZNK4ncnn13Scale_x86_fma15forward_inplaceERSt6vectorINS_3MatESaIS2_EERKNS_6OptionE.omp_outlined.7, ptr %12, ptr %145, ptr %15, ptr %14, ptr %26, ptr %16, ptr %24)
  call void @llvm.lifetime.end.p0(i64 4, ptr %24) #7
  br label %146

146:                                              ; preds = %134, %131
  call void @llvm.lifetime.end.p0(i64 8, ptr %16) #7
  call void @llvm.lifetime.end.p0(i64 8, ptr %15) #7
  call void @llvm.lifetime.end.p0(i64 4, ptr %14) #7
  call void @llvm.lifetime.end.p0(i64 4, ptr %13) #7
  call void @llvm.lifetime.end.p0(i64 4, ptr %12) #7
  call void @llvm.lifetime.end.p0(i64 4, ptr %11) #7
  call void @llvm.lifetime.end.p0(i64 4, ptr %10) #7
  call void @llvm.lifetime.end.p0(i64 4, ptr %9) #7
  call void @llvm.lifetime.end.p0(i64 8, ptr %8) #7
  call void @llvm.lifetime.end.p0(i64 8, ptr %7) #7
  ret i32 0
}